; ModuleID = '7/412.c'
source_filename = "7/412.c"
target datalayout = "e-m:e-p270:32:32-p271:32:32-p272:64:64-i64:64-f80:128-n8:16:32:64-S128"
target triple = "x86_64-pc-linux-gnu"

@.str = private unnamed_addr constant [3 x i8] c"%s\00", align 1

; Function Attrs: noinline nounwind uwtable
define dso_local i32 @main() #0 {
  %1 = alloca i32, align 4
  %2 = alloca [256 x i8], align 16
  %3 = alloca [256 x i8], align 16
  %4 = alloca [256 x i8], align 16
  %5 = alloca [256 x i8], align 16
  %6 = alloca i32, align 4
  %7 = alloca i32, align 4
  %8 = alloca i32, align 4
  %9 = alloca i32, align 4
  %10 = alloca i32, align 4
  %11 = alloca i32, align 4
  %12 = alloca i32, align 4
  store i32 0, i32* %1, align 4
  %13 = bitcast [256 x i8]* %5 to i8*
  call void @llvm.memset.p0i8.i64(i8* align 16 %13, i8 0, i64 256, i1 false)
  %14 = getelementptr inbounds [256 x i8], [256 x i8]* %2, i64 0, i64 0
  %15 = call i32 (i8*, ...) bitcast (i32 (...)* @gets to i32 (i8*, ...)*)(i8* %14)
  %16 = getelementptr inbounds [256 x i8], [256 x i8]* %3, i64 0, i64 0
  %17 = call i32 (i8*, ...) bitcast (i32 (...)* @gets to i32 (i8*, ...)*)(i8* %16)
  %18 = getelementptr inbounds [256 x i8], [256 x i8]* %4, i64 0, i64 0
  %19 = call i32 (i8*, ...) bitcast (i32 (...)* @gets to i32 (i8*, ...)*)(i8* %18)
  store i32 0, i32* %7, align 4
  %20 = getelementptr inbounds [256 x i8], [256 x i8]* %2, i64 0, i64 0
  %21 = call i64 @strlen(i8* %20) #5
  %22 = trunc i64 %21 to i32
  store i32 %22, i32* %8, align 4
  %23 = getelementptr inbounds [256 x i8], [256 x i8]* %3, i64 0, i64 0
  %24 = call i64 @strlen(i8* %23) #5
  %25 = trunc i64 %24 to i32
  store i32 %25, i32* %9, align 4
  store i32 0, i32* %6, align 4
  br label %26

26:                                               ; preds = %52, %0
  %27 = load i32, i32* %6, align 4
  %28 = load i32, i32* %8, align 4
  %29 = icmp slt i32 %27, %28
  br i1 %29, label %30, label %55

30:                                               ; preds = %26
  %31 = load i32, i32* %6, align 4
  %32 = sext i32 %31 to i64
  %33 = getelementptr inbounds [256 x i8], [256 x i8]* %2, i64 0, i64 %32
  %34 = load i8, i8* %33, align 1
  %35 = sext i8 %34 to i32
  %36 = load i32, i32* %7, align 4
  %37 = sext i32 %36 to i64
  %38 = getelementptr inbounds [256 x i8], [256 x i8]* %3, i64 0, i64 %37
  %39 = load i8, i8* %38, align 1
  %40 = sext i8 %39 to i32
  %41 = icmp ne i32 %35, %40
  br i1 %41, label %42, label %43

42:                                               ; preds = %30
  store i32 0, i32* %7, align 4
  br label %46

43:                                               ; preds = %30
  %44 = load i32, i32* %7, align 4
  %45 = add nsw i32 %44, 1
  store i32 %45, i32* %7, align 4
  br label %46

46:                                               ; preds = %43, %42
  %47 = load i32, i32* %7, align 4
  %48 = load i32, i32* %9, align 4
  %49 = icmp eq i32 %47, %48
  br i1 %49, label %50, label %51

50:                                               ; preds = %46
  br label %55

51:                                               ; preds = %46
  br label %52

52:                                               ; preds = %51
  %53 = load i32, i32* %6, align 4
  %54 = add nsw i32 %53, 1
  store i32 %54, i32* %6, align 4
  br label %26

55:                                               ; preds = %50, %26
  %56 = load i32, i32* %7, align 4
  %57 = load i32, i32* %9, align 4
  %58 = icmp ne i32 %56, %57
  br i1 %58, label %59, label %62

59:                                               ; preds = %55
  %60 = getelementptr inbounds [256 x i8], [256 x i8]* %2, i64 0, i64 0
  %61 = call i32 (i8*, ...) @printf(i8* getelementptr inbounds ([3 x i8], [3 x i8]* @.str, i64 0, i64 0), i8* %60)
  br label %62

62:                                               ; preds = %59, %55
  %63 = load i32, i32* %6, align 4
  %64 = add nsw i32 %63, 1
  store i32 %64, i32* %10, align 4
  %65 = load i32, i32* %6, align 4
  %66 = load i32, i32* %8, align 4
  %67 = icmp ne i32 %65, %66
  br i1 %67, label %68, label %107

68:                                               ; preds = %62
  store i32 0, i32* %11, align 4
  %69 = load i32, i32* %6, align 4
  %70 = add nsw i32 %69, 1
  store i32 %70, i32* %10, align 4
  br label %71

71:                                               ; preds = %85, %68
  %72 = load i32, i32* %10, align 4
  %73 = load i32, i32* %8, align 4
  %74 = icmp slt i32 %72, %73
  br i1 %74, label %75, label %88

75:                                               ; preds = %71
  %76 = load i32, i32* %10, align 4
  %77 = sext i32 %76 to i64
  %78 = getelementptr inbounds [256 x i8], [256 x i8]* %2, i64 0, i64 %77
  %79 = load i8, i8* %78, align 1
  %80 = load i32, i32* %11, align 4
  %81 = sext i32 %80 to i64
  %82 = getelementptr inbounds [256 x i8], [256 x i8]* %5, i64 0, i64 %81
  store i8 %79, i8* %82, align 1
  %83 = load i32, i32* %11, align 4
  %84 = add nsw i32 %83, 1
  store i32 %84, i32* %11, align 4
  br label %85

85:                                               ; preds = %75
  %86 = load i32, i32* %10, align 4
  %87 = add nsw i32 %86, 1
  store i32 %87, i32* %10, align 4
  br label %71

88:                                               ; preds = %71
  %89 = getelementptr inbounds [256 x i8], [256 x i8]* %5, i64 0, i64 0
  %90 = call i64 @strlen(i8* %89) #5
  %91 = trunc i64 %90 to i32
  store i32 %91, i32* %12, align 4
  %92 = load i32, i32* %8, align 4
  %93 = load i32, i32* %12, align 4
  %94 = sub nsw i32 %92, %93
  %95 = load i32, i32* %9, align 4
  %96 = sub nsw i32 %94, %95
  %97 = sext i32 %96 to i64
  %98 = getelementptr inbounds [256 x i8], [256 x i8]* %2, i64 0, i64 %97
  store i8 0, i8* %98, align 1
  %99 = getelementptr inbounds [256 x i8], [256 x i8]* %2, i64 0, i64 0
  %100 = getelementptr inbounds [256 x i8], [256 x i8]* %4, i64 0, i64 0
  %101 = call i8* @strcat(i8* %99, i8* %100) #6
  %102 = getelementptr inbounds [256 x i8], [256 x i8]* %2, i64 0, i64 0
  %103 = getelementptr inbounds [256 x i8], [256 x i8]* %5, i64 0, i64 0
  %104 = call i8* @strcat(i8* %102, i8* %103) #6
  %105 = getelementptr inbounds [256 x i8], [256 x i8]* %2, i64 0, i64 0
  %106 = call i32 (i8*, ...) @printf(i8* getelementptr inbounds ([3 x i8], [3 x i8]* @.str, i64 0, i64 0), i8* %105)
  br label %107

107:                                              ; preds = %88, %62
  %108 = load i32, i32* %6, align 4
  %109 = load i32, i32* %8, align 4
  %110 = icmp eq i32 %108, %109
  br i1 %110, label %111, label %126

111:                                              ; preds = %107
  %112 = load i32, i32* %7, align 4
  %113 = load i32, i32* %9, align 4
  %114 = icmp eq i32 %112, %113
  br i1 %114, label %115, label %126

115:                                              ; preds = %111
  %116 = load i32, i32* %8, align 4
  %117 = load i32, i32* %9, align 4
  %118 = sub nsw i32 %116, %117
  %119 = sext i32 %118 to i64
  %120 = getelementptr inbounds [256 x i8], [256 x i8]* %2, i64 0, i64 %119
  store i8 0, i8* %120, align 1
  %121 = getelementptr inbounds [256 x i8], [256 x i8]* %2, i64 0, i64 0
  %122 = getelementptr inbounds [256 x i8], [256 x i8]* %4, i64 0, i64 0
  %123 = call i8* @strcat(i8* %121, i8* %122) #6
  %124 = getelementptr inbounds [256 x i8], [256 x i8]* %2, i64 0, i64 0
  %125 = call i32 (i8*, ...) @printf(i8* getelementptr inbounds ([3 x i8], [3 x i8]* @.str, i64 0, i64 0), i8* %124)
  br label %126

126:                                              ; preds = %115, %111, %107
  ret i32 0
}

; Function Attrs: argmemonly nounwind willreturn
declare void @llvm.memset.p0i8.i64(i8* nocapture writeonly, i8, i64, i1 immarg) #1

declare dso_local i32 @gets(...) #2

; Function Attrs: nounwind readonly
declare dso_local i64 @strlen(i8*) #3

declare dso_local i32 @printf(i8*, ...) #2

; Function Attrs: nounwind
declare dso_local i8* @strcat(i8*, i8*) #4


!llvm.module.flags = !{!0}
!llvm.ident = !{!1}

!0 = !{i32 1, !"wchar_size", i32 4}
!1 = !{!"clang version 10.0.0-4ubuntu1 "}
