; ModuleID = 'source-C-CXX/6/412.c'
source_filename = "source-C-CXX/6/412.c"
target datalayout = "e-m:e-p270:32:32-p271:32:32-p272:64:64-i64:64-f80:128-n8:16:32:64-S128"
target triple = "x86_64-pc-linux-gnu"

@.str = private unnamed_addr constant [3 x i8] c"%s\00", align 1

; Function Attrs: nounwind sspstrong uwtable
define dso_local i32 @main() local_unnamed_addr #0 {
  %1 = alloca [256 x i8], align 16
  %2 = alloca [256 x i8], align 16
  %3 = alloca [256 x i8], align 16
  %4 = alloca [256 x i8], align 16
  %5 = getelementptr inbounds [256 x i8], [256 x i8]* %4, i64 0, i64 0
  %6 = getelementptr inbounds [256 x i8], [256 x i8]* %1, i64 0, i64 0
  call void @llvm.lifetime.start.p0i8(i64 256, i8* nonnull %6) #8
  %7 = getelementptr inbounds [256 x i8], [256 x i8]* %2, i64 0, i64 0
  call void @llvm.lifetime.start.p0i8(i64 256, i8* nonnull %7) #8
  %8 = getelementptr inbounds [256 x i8], [256 x i8]* %3, i64 0, i64 0
  call void @llvm.lifetime.start.p0i8(i64 256, i8* nonnull %8) #8
  %9 = getelementptr inbounds [256 x i8], [256 x i8]* %4, i64 0, i64 0
  call void @llvm.lifetime.start.p0i8(i64 256, i8* nonnull %9) #8
  call void @llvm.memset.p0i8.i64(i8* noundef nonnull align 16 dereferenceable(256) %9, i8 0, i64 256, i1 false)
  %10 = call i32 (i8*, ...) bitcast (i32 (...)* @gets to i32 (i8*, ...)*)(i8* nonnull %6) #8
  %11 = call i32 (i8*, ...) bitcast (i32 (...)* @gets to i32 (i8*, ...)*)(i8* nonnull %7) #8
  %12 = call i32 (i8*, ...) bitcast (i32 (...)* @gets to i32 (i8*, ...)*)(i8* nonnull %8) #8
  %13 = call i64 @strlen(i8* noundef nonnull %6) #9
  %14 = trunc i64 %13 to i32
  %15 = call i64 @strlen(i8* noundef nonnull %7) #9
  %16 = trunc i64 %15 to i32
  %17 = icmp sgt i32 %14, 0
  br i1 %17, label %18, label %35

18:                                               ; preds = %0
  %19 = and i64 %13, 4294967295
  br label %20

20:                                               ; preds = %18, %32
  %21 = phi i64 [ 0, %18 ], [ %33, %32 ]
  %22 = phi i32 [ 0, %18 ], [ %30, %32 ]
  %23 = getelementptr inbounds [256 x i8], [256 x i8]* %1, i64 0, i64 %21
  %24 = load i8, i8* %23, align 1, !tbaa !5
  %25 = sext i32 %22 to i64
  %26 = getelementptr inbounds [256 x i8], [256 x i8]* %2, i64 0, i64 %25
  %27 = load i8, i8* %26, align 1, !tbaa !5
  %28 = icmp eq i8 %24, %27
  %29 = add nsw i32 %22, 1
  %30 = select i1 %28, i32 %29, i32 0
  %31 = icmp eq i32 %30, %16
  br i1 %31, label %43, label %32

32:                                               ; preds = %20
  %33 = add nuw nsw i64 %21, 1
  %34 = icmp eq i64 %33, %19
  br i1 %34, label %35, label %20, !llvm.loop !8

35:                                               ; preds = %32, %0
  %36 = phi i32 [ 0, %0 ], [ %14, %32 ]
  %37 = phi i32 [ 0, %0 ], [ %30, %32 ]
  %38 = icmp eq i32 %37, %16
  br i1 %38, label %41, label %39

39:                                               ; preds = %35
  %40 = call i32 (i8*, ...) @printf(i8* nonnull dereferenceable(1) getelementptr inbounds ([3 x i8], [3 x i8]* @.str, i64 0, i64 0), i8* nonnull %6)
  br label %41

41:                                               ; preds = %39, %35
  %42 = icmp eq i32 %36, %14
  br i1 %42, label %65, label %46

43:                                               ; preds = %20
  %44 = trunc i64 %21 to i32
  %45 = icmp eq i32 %44, %14
  br i1 %45, label %66, label %46

46:                                               ; preds = %43, %41
  %47 = phi i32 [ %44, %43 ], [ %36, %41 ]
  %48 = add i32 %47, 1
  %49 = icmp slt i32 %48, %14
  br i1 %49, label %50, label %57

50:                                               ; preds = %46
  %51 = zext i32 %48 to i64
  %52 = getelementptr [256 x i8], [256 x i8]* %1, i64 0, i64 %51
  %53 = add i32 %14, -2
  %54 = sub i32 %53, %47
  %55 = zext i32 %54 to i64
  %56 = add nuw nsw i64 %55, 1
  call void @llvm.memcpy.p0i8.p0i8.i64(i8* noundef nonnull align 16 %5, i8* noundef nonnull align 1 dereferenceable(1) %52, i64 %56, i1 false)
  br label %57

57:                                               ; preds = %50, %46
  %58 = call i64 @strlen(i8* noundef nonnull %9) #9
  %59 = add i64 %15, %58
  %60 = sub i64 %13, %59
  %61 = shl i64 %60, 32
  %62 = ashr exact i64 %61, 32
  %63 = getelementptr inbounds [256 x i8], [256 x i8]* %1, i64 0, i64 %62
  store i8 0, i8* %63, align 1, !tbaa !5
  %64 = call i8* @strcat(i8* noundef nonnull %6, i8* noundef nonnull %8) #8
  br label %71

65:                                               ; preds = %41
  br i1 %38, label %66, label %75

66:                                               ; preds = %43, %65
  %67 = sub i64 %13, %15
  %68 = shl i64 %67, 32
  %69 = ashr exact i64 %68, 32
  %70 = getelementptr inbounds [256 x i8], [256 x i8]* %1, i64 0, i64 %69
  store i8 0, i8* %70, align 1, !tbaa !5
  br label %71

71:                                               ; preds = %66, %57
  %72 = phi i8* [ %9, %57 ], [ %8, %66 ]
  %73 = call i8* @strcat(i8* noundef nonnull %6, i8* noundef nonnull %72) #8
  %74 = call i32 (i8*, ...) @printf(i8* nonnull dereferenceable(1) getelementptr inbounds ([3 x i8], [3 x i8]* @.str, i64 0, i64 0), i8* nonnull %6)
  br label %75

75:                                               ; preds = %71, %65
  call void @llvm.lifetime.end.p0i8(i64 256, i8* nonnull %9) #8
  call void @llvm.lifetime.end.p0i8(i64 256, i8* nonnull %8) #8
  call void @llvm.lifetime.end.p0i8(i64 256, i8* nonnull %7) #8
  call void @llvm.lifetime.end.p0i8(i64 256, i8* nonnull %6) #8
  ret i32 0
}

; Function Attrs: argmemonly mustprogress nofree nosync nounwind willreturn
declare void @llvm.lifetime.start.p0i8(i64 immarg, i8* nocapture) #1

; Function Attrs: argmemonly mustprogress nofree nounwind willreturn writeonly
declare void @llvm.memset.p0i8.i64(i8* nocapture writeonly, i8, i64, i1 immarg) #2

declare i32 @gets(...) local_unnamed_addr #3

; Function Attrs: argmemonly mustprogress nofree nounwind readonly willreturn
declare i64 @strlen(i8* nocapture) local_unnamed_addr #4

; Function Attrs: nofree nounwind
declare noundef i32 @printf(i8* nocapture noundef readonly, ...) local_unnamed_addr #5

; Function Attrs: argmemonly mustprogress nofree nounwind willreturn
declare i8* @strcat(i8* noalias returned, i8* noalias nocapture readonly) local_unnamed_addr #6

; Function Attrs: argmemonly mustprogress nofree nosync nounwind willreturn
declare void @llvm.lifetime.end.p0i8(i64 immarg, i8* nocapture) #1

; Function Attrs: argmemonly nofree nounwind willreturn
declare void @llvm.memcpy.p0i8.p0i8.i64(i8* noalias nocapture writeonly, i8* noalias nocapture readonly, i64, i1 immarg) #7


!llvm.module.flags = !{!0, !1, !2, !3}
!llvm.ident = !{!4}

!0 = !{i32 1, !"wchar_size", i32 4}
!1 = !{i32 7, !"PIC Level", i32 2}
!2 = !{i32 7, !"PIE Level", i32 2}
!3 = !{i32 7, !"uwtable", i32 1}
!4 = !{!"clang version 13.0.0"}
!5 = !{!6, !6, i64 0}
!6 = !{!"omnipotent char", !7, i64 0}
!7 = !{!"Simple C/C++ TBAA"}
!8 = distinct !{!8, !9}
!9 = !{!"llvm.loop.mustprogress"}
